target datalayout = "e-m:e-p270:32:32-p271:32:32-p272:64:64-i64:64-i128:128-f80:128-n8:16:32:64-S128"
target triple = "x86_64-pc-linux-gnu"

%struct.dt_masks_form_t = type { ptr, i32, ptr, [2 x float], [128 x i8], i32, i32 }
%struct._GList = type { ptr, ptr, ptr }
%struct.dt_masks_point_brush_t = type { [2 x float], [2 x float], [2 x float], [2 x float], float, float, i32 }

; Function Attrs: inlinehint nounwind uwtable
define internal float @sqf(float noundef %0) #4 {
  %2 = alloca float, align 4
  store float %0, ptr %2, align 4, !tbaa !29
  %3 = load float, ptr %2, align 4, !tbaa !29
  %4 = load float, ptr %2, align 4, !tbaa !29
  %5 = fmul reassoc nsz arcp contract afn float %3, %4
  ret float %5
}

; Function Attrs: nounwind uwtable
define internal void @_brush_get_XY(float noundef %0, float noundef %1, float noundef %2, float noundef %3, float noundef %4, float noundef %5, float noundef %6, float noundef %7, float noundef %8, ptr noundef %9, ptr noundef %10) #0 {
  %12 = alloca float, align 4
  %13 = alloca float, align 4
  %14 = alloca float, align 4
  %15 = alloca float, align 4
  %16 = alloca float, align 4
  %17 = alloca float, align 4
  %18 = alloca float, align 4
  %19 = alloca float, align 4
  %20 = alloca float, align 4
  %21 = alloca ptr, align 8
  %22 = alloca ptr, align 8
  %23 = alloca float, align 4
  %24 = alloca float, align 4
  %25 = alloca float, align 4
  %26 = alloca float, align 4
  %27 = alloca float, align 4
  store float %0, ptr %12, align 4, !tbaa !29
  store float %1, ptr %13, align 4, !tbaa !29
  store float %2, ptr %14, align 4, !tbaa !29
  store float %3, ptr %15, align 4, !tbaa !29
  store float %4, ptr %16, align 4, !tbaa !29
  store float %5, ptr %17, align 4, !tbaa !29
  store float %6, ptr %18, align 4, !tbaa !29
  store float %7, ptr %19, align 4, !tbaa !29
  store float %8, ptr %20, align 4, !tbaa !29
  store ptr %9, ptr %21, align 8, !tbaa !30
  store ptr %10, ptr %22, align 8, !tbaa !30
  call void @llvm.lifetime.start.p0(i64 4, ptr %23) #14
  %28 = load float, ptr %20, align 4, !tbaa !29
  %29 = fsub reassoc nsz arcp contract afn float 1.000000e+00, %28
  store float %29, ptr %23, align 4, !tbaa !29
  call void @llvm.lifetime.start.p0(i64 4, ptr %24) #14
  %30 = load float, ptr %23, align 4, !tbaa !29
  %31 = load float, ptr %23, align 4, !tbaa !29
  %32 = fmul reassoc nsz arcp contract afn float %30, %31
  %33 = load float, ptr %23, align 4, !tbaa !29
  %34 = fmul reassoc nsz arcp contract afn float %32, %33
  store float %34, ptr %24, align 4, !tbaa !29
  call void @llvm.lifetime.start.p0(i64 4, ptr %25) #14
  %35 = load float, ptr %20, align 4, !tbaa !29
  %36 = fmul reassoc nsz arcp contract afn float 3.000000e+00, %35
  %37 = load float, ptr %23, align 4, !tbaa !29
  %38 = fmul reassoc nsz arcp contract afn float %36, %37
  %39 = load float, ptr %23, align 4, !tbaa !29
  %40 = fmul reassoc nsz arcp contract afn float %38, %39
  store float %40, ptr %25, align 4, !tbaa !29
  call void @llvm.lifetime.start.p0(i64 4, ptr %26) #14
  %41 = load float, ptr %20, align 4, !tbaa !29
  %42 = call reassoc nsz arcp contract afn float @sqf(float noundef %41)
  %43 = fmul reassoc nsz arcp contract afn float 3.000000e+00, %42
  %44 = load float, ptr %23, align 4, !tbaa !29
  %45 = fmul reassoc nsz arcp contract afn float %43, %44
  store float %45, ptr %26, align 4, !tbaa !29
  call void @llvm.lifetime.start.p0(i64 4, ptr %27) #14
  %46 = load float, ptr %20, align 4, !tbaa !29
  %47 = load float, ptr %20, align 4, !tbaa !29
  %48 = fmul reassoc nsz arcp contract afn float %46, %47
  %49 = load float, ptr %20, align 4, !tbaa !29
  %50 = fmul reassoc nsz arcp contract afn float %48, %49
  store float %50, ptr %27, align 4, !tbaa !29
  %51 = load float, ptr %12, align 4, !tbaa !29
  %52 = load float, ptr %24, align 4, !tbaa !29
  %53 = fmul reassoc nsz arcp contract afn float %51, %52
  %54 = load float, ptr %14, align 4, !tbaa !29
  %55 = load float, ptr %25, align 4, !tbaa !29
  %56 = fmul reassoc nsz arcp contract afn float %54, %55
  %57 = fadd reassoc nsz arcp contract afn float %53, %56
  %58 = load float, ptr %16, align 4, !tbaa !29
  %59 = load float, ptr %26, align 4, !tbaa !29
  %60 = fmul reassoc nsz arcp contract afn float %58, %59
  %61 = fadd reassoc nsz arcp contract afn float %57, %60
  %62 = load float, ptr %18, align 4, !tbaa !29
  %63 = load float, ptr %27, align 4, !tbaa !29
  %64 = fmul reassoc nsz arcp contract afn float %62, %63
  %65 = fadd reassoc nsz arcp contract afn float %61, %64
  %66 = load ptr, ptr %21, align 8, !tbaa !30
  store float %65, ptr %66, align 4, !tbaa !29
  %67 = load float, ptr %13, align 4, !tbaa !29
  %68 = load float, ptr %24, align 4, !tbaa !29
  %69 = fmul reassoc nsz arcp contract afn float %67, %68
  %70 = load float, ptr %15, align 4, !tbaa !29
  %71 = load float, ptr %25, align 4, !tbaa !29
  %72 = fmul reassoc nsz arcp contract afn float %70, %71
  %73 = fadd reassoc nsz arcp contract afn float %69, %72
  %74 = load float, ptr %17, align 4, !tbaa !29
  %75 = load float, ptr %26, align 4, !tbaa !29
  %76 = fmul reassoc nsz arcp contract afn float %74, %75
  %77 = fadd reassoc nsz arcp contract afn float %73, %76
  %78 = load float, ptr %19, align 4, !tbaa !29
  %79 = load float, ptr %27, align 4, !tbaa !29
  %80 = fmul reassoc nsz arcp contract afn float %78, %79
  %81 = fadd reassoc nsz arcp contract afn float %77, %80
  %82 = load ptr, ptr %22, align 8, !tbaa !30
  store float %81, ptr %82, align 4, !tbaa !29
  call void @llvm.lifetime.end.p0(i64 4, ptr %27) #14
  call void @llvm.lifetime.end.p0(i64 4, ptr %26) #14
  call void @llvm.lifetime.end.p0(i64 4, ptr %25) #14
  call void @llvm.lifetime.end.p0(i64 4, ptr %24) #14
  call void @llvm.lifetime.end.p0(i64 4, ptr %23) #14
  ret void
}

; Function Attrs: inlinehint nounwind uwtable
define internal ptr @g_list_next_bounded(ptr noundef %0) #4 {
  %2 = alloca ptr, align 8
  store ptr %0, ptr %2, align 8, !tbaa !100
  %3 = load ptr, ptr %2, align 8, !tbaa !100
  %4 = icmp ne ptr %3, null
  br i1 %4, label %5, label %10

5:                                                ; preds = %1
  %6 = load ptr, ptr %2, align 8, !tbaa !100
  %7 = getelementptr inbounds nuw %struct._GList, ptr %6, i32 0, i32 1
  %8 = load ptr, ptr %7, align 8, !tbaa !106
  %9 = icmp ne ptr %8, null
  br i1 %9, label %11, label %21

10:                                               ; preds = %1
  br i1 false, label %11, label %21

11:                                               ; preds = %10, %5
  %12 = load ptr, ptr %2, align 8, !tbaa !100
  %13 = icmp ne ptr %12, null
  br i1 %13, label %14, label %18

14:                                               ; preds = %11
  %15 = load ptr, ptr %2, align 8, !tbaa !100
  %16 = getelementptr inbounds nuw %struct._GList, ptr %15, i32 0, i32 1
  %17 = load ptr, ptr %16, align 8, !tbaa !106
  br label %19

18:                                               ; preds = %11
  br label %19

19:                                               ; preds = %18, %14
  %20 = phi ptr [ %17, %14 ], [ null, %18 ]
  br label %23

21:                                               ; preds = %10, %5
  %22 = load ptr, ptr %2, align 8, !tbaa !100
  br label %23

23:                                               ; preds = %21, %19
  %24 = phi ptr [ %20, %19 ], [ %22, %21 ]
  ret ptr %24
}

; Function Attrs: nounwind uwtable
define internal float @_brush_get_position_in_segment(float noundef %0, float noundef %1, ptr noundef %2, i32 noundef %3) #0 {
  %5 = alloca float, align 4
  %6 = alloca float, align 4
  %7 = alloca ptr, align 8
  %8 = alloca i32, align 4
  %9 = alloca ptr, align 8
  %10 = alloca ptr, align 8
  %11 = alloca ptr, align 8
  %12 = alloca ptr, align 8
  %13 = alloca ptr, align 8
  %14 = alloca ptr, align 8
  %15 = alloca float, align 4
  %16 = alloca float, align 4
  %17 = alloca i32, align 4
  %18 = alloca float, align 4
  %19 = alloca float, align 4
  %20 = alloca float, align 4
  %21 = alloca float, align 4
  store float %0, ptr %5, align 4, !tbaa !29
  store float %1, ptr %6, align 4, !tbaa !29
  store ptr %2, ptr %7, align 8, !tbaa !10
  store i32 %3, ptr %8, align 4, !tbaa !6
  call void @llvm.lifetime.start.p0(i64 8, ptr %9) #14
  %22 = load ptr, ptr %7, align 8, !tbaa !10
  %23 = getelementptr inbounds nuw %struct.dt_masks_form_t, ptr %22, i32 0, i32 0
  %24 = load ptr, ptr %23, align 8, !tbaa !99
  %25 = load i32, ptr %8, align 4, !tbaa !6
  %26 = call ptr @g_list_nth(ptr noundef %24, i32 noundef %25)
  store ptr %26, ptr %9, align 8, !tbaa !100
  call void @llvm.lifetime.start.p0(i64 8, ptr %10) #14
  %27 = load ptr, ptr %9, align 8, !tbaa !100
  %28 = getelementptr inbounds nuw %struct._GList, ptr %27, i32 0, i32 0
  %29 = load ptr, ptr %28, align 8, !tbaa !102
  store ptr %29, ptr %10, align 8, !tbaa !104
  call void @llvm.lifetime.start.p0(i64 8, ptr %11) #14
  %30 = load ptr, ptr %9, align 8, !tbaa !100
  %31 = call ptr @g_list_next_bounded(ptr noundef %30)
  store ptr %31, ptr %11, align 8, !tbaa !100
  call void @llvm.lifetime.start.p0(i64 8, ptr %12) #14
  %32 = load ptr, ptr %11, align 8, !tbaa !100
  %33 = getelementptr inbounds nuw %struct._GList, ptr %32, i32 0, i32 0
  %34 = load ptr, ptr %33, align 8, !tbaa !102
  store ptr %34, ptr %12, align 8, !tbaa !104
  %35 = load ptr, ptr %11, align 8, !tbaa !100
  %36 = call ptr @g_list_next_bounded(ptr noundef %35)
  store ptr %36, ptr %11, align 8, !tbaa !100
  call void @llvm.lifetime.start.p0(i64 8, ptr %13) #14
  %37 = load ptr, ptr %11, align 8, !tbaa !100
  %38 = getelementptr inbounds nuw %struct._GList, ptr %37, i32 0, i32 0
  %39 = load ptr, ptr %38, align 8, !tbaa !102
  store ptr %39, ptr %13, align 8, !tbaa !104
  %40 = load ptr, ptr %11, align 8, !tbaa !100
  %41 = call ptr @g_list_next_bounded(ptr noundef %40)
  store ptr %41, ptr %11, align 8, !tbaa !100
  call void @llvm.lifetime.start.p0(i64 8, ptr %14) #14
  %42 = load ptr, ptr %11, align 8, !tbaa !100
  %43 = getelementptr inbounds nuw %struct._GList, ptr %42, i32 0, i32 0
  %44 = load ptr, ptr %43, align 8, !tbaa !102
  store ptr %44, ptr %14, align 8, !tbaa !104
  call void @llvm.lifetime.start.p0(i64 4, ptr %15) #14
  store float 0.000000e+00, ptr %15, align 4, !tbaa !29
  call void @llvm.lifetime.start.p0(i64 4, ptr %16) #14
  store float 0x47EFFFFFE0000000, ptr %16, align 4, !tbaa !29
  call void @llvm.lifetime.start.p0(i64 4, ptr %17) #14
  store i32 0, ptr %17, align 4, !tbaa !6
  br label %45

45:                                               ; preds = %108, %4
  %46 = load i32, ptr %17, align 4, !tbaa !6
  %47 = icmp sle i32 %46, 100
  br i1 %47, label %49, label %48

48:                                               ; preds = %45
  call void @llvm.lifetime.end.p0(i64 4, ptr %17) #14
  br label %111

49:                                               ; preds = %45
  call void @llvm.lifetime.start.p0(i64 4, ptr %18) #14
  %50 = load i32, ptr %17, align 4, !tbaa !6
  %51 = sitofp i32 %50 to float
  %52 = fdiv reassoc nsz arcp contract afn float %51, 1.000000e+02
  store float %52, ptr %18, align 4, !tbaa !29
  call void @llvm.lifetime.start.p0(i64 4, ptr %19) #14
  call void @llvm.lifetime.start.p0(i64 4, ptr %20) #14
  %53 = load ptr, ptr %10, align 8, !tbaa !104
  %54 = getelementptr inbounds nuw %struct.dt_masks_point_brush_t, ptr %53, i32 0, i32 0
  %55 = getelementptr inbounds [2 x float], ptr %54, i64 0, i64 0
  %56 = load float, ptr %55, align 4, !tbaa !29
  %57 = load ptr, ptr %10, align 8, !tbaa !104
  %58 = getelementptr inbounds nuw %struct.dt_masks_point_brush_t, ptr %57, i32 0, i32 0
  %59 = getelementptr inbounds [2 x float], ptr %58, i64 0, i64 1
  %60 = load float, ptr %59, align 4, !tbaa !29
  %61 = load ptr, ptr %12, align 8, !tbaa !104
  %62 = getelementptr inbounds nuw %struct.dt_masks_point_brush_t, ptr %61, i32 0, i32 0
  %63 = getelementptr inbounds [2 x float], ptr %62, i64 0, i64 0
  %64 = load float, ptr %63, align 4, !tbaa !29
  %65 = load ptr, ptr %12, align 8, !tbaa !104
  %66 = getelementptr inbounds nuw %struct.dt_masks_point_brush_t, ptr %65, i32 0, i32 0
  %67 = getelementptr inbounds [2 x float], ptr %66, i64 0, i64 1
  %68 = load float, ptr %67, align 4, !tbaa !29
  %69 = load ptr, ptr %13, align 8, !tbaa !104
  %70 = getelementptr inbounds nuw %struct.dt_masks_point_brush_t, ptr %69, i32 0, i32 0
  %71 = getelementptr inbounds [2 x float], ptr %70, i64 0, i64 0
  %72 = load float, ptr %71, align 4, !tbaa !29
  %73 = load ptr, ptr %13, align 8, !tbaa !104
  %74 = getelementptr inbounds nuw %struct.dt_masks_point_brush_t, ptr %73, i32 0, i32 0
  %75 = getelementptr inbounds [2 x float], ptr %74, i64 0, i64 1
  %76 = load float, ptr %75, align 4, !tbaa !29
  %77 = load ptr, ptr %14, align 8, !tbaa !104
  %78 = getelementptr inbounds nuw %struct.dt_masks_point_brush_t, ptr %77, i32 0, i32 0
  %79 = getelementptr inbounds [2 x float], ptr %78, i64 0, i64 0
  %80 = load float, ptr %79, align 4, !tbaa !29
  %81 = load ptr, ptr %14, align 8, !tbaa !104
  %82 = getelementptr inbounds nuw %struct.dt_masks_point_brush_t, ptr %81, i32 0, i32 0
  %83 = getelementptr inbounds [2 x float], ptr %82, i64 0, i64 1
  %84 = load float, ptr %83, align 4, !tbaa !29
  %85 = load float, ptr %18, align 4, !tbaa !29
  call void @_brush_get_XY(float noundef %56, float noundef %60, float noundef %64, float noundef %68, float noundef %72, float noundef %76, float noundef %80, float noundef %84, float noundef %85, ptr noundef %19, ptr noundef %20)
  call void @llvm.lifetime.start.p0(i64 4, ptr %21) #14
  %86 = load float, ptr %5, align 4, !tbaa !29
  %87 = load float, ptr %19, align 4, !tbaa !29
  %88 = fsub reassoc nsz arcp contract afn float %86, %87
  %89 = load float, ptr %5, align 4, !tbaa !29
  %90 = load float, ptr %19, align 4, !tbaa !29
  %91 = fsub reassoc nsz arcp contract afn float %89, %90
  %92 = fmul reassoc nsz arcp contract afn float %88, %91
  %93 = load float, ptr %6, align 4, !tbaa !29
  %94 = load float, ptr %20, align 4, !tbaa !29
  %95 = fsub reassoc nsz arcp contract afn float %93, %94
  %96 = load float, ptr %6, align 4, !tbaa !29
  %97 = load float, ptr %20, align 4, !tbaa !29
  %98 = fsub reassoc nsz arcp contract afn float %96, %97
  %99 = fmul reassoc nsz arcp contract afn float %95, %98
  %100 = fadd reassoc nsz arcp contract afn float %92, %99
  store float %100, ptr %21, align 4, !tbaa !29
  %101 = load float, ptr %21, align 4, !tbaa !29
  %102 = load float, ptr %16, align 4, !tbaa !29
  %103 = fcmp reassoc nsz arcp contract afn olt float %101, %102
  br i1 %103, label %104, label %107

104:                                              ; preds = %49
  %105 = load float, ptr %21, align 4, !tbaa !29
  store float %105, ptr %16, align 4, !tbaa !29
  %106 = load float, ptr %18, align 4, !tbaa !29
  store float %106, ptr %15, align 4, !tbaa !29
  br label %107

107:                                              ; preds = %104, %49
  call void @llvm.lifetime.end.p0(i64 4, ptr %21) #14
  call void @llvm.lifetime.end.p0(i64 4, ptr %20) #14
  call void @llvm.lifetime.end.p0(i64 4, ptr %19) #14
  call void @llvm.lifetime.end.p0(i64 4, ptr %18) #14
  br label %108

108:                                              ; preds = %107
  %109 = load i32, ptr %17, align 4, !tbaa !6
  %110 = add nsw i32 %109, 1
  store i32 %110, ptr %17, align 4, !tbaa !6
  br label %45

111:                                              ; preds = %48
  %112 = load float, ptr %15, align 4, !tbaa !29
  call void @llvm.lifetime.end.p0(i64 4, ptr %16) #14
  call void @llvm.lifetime.end.p0(i64 4, ptr %15) #14
  call void @llvm.lifetime.end.p0(i64 8, ptr %14) #14
  call void @llvm.lifetime.end.p0(i64 8, ptr %13) #14
  call void @llvm.lifetime.end.p0(i64 8, ptr %12) #14
  call void @llvm.lifetime.end.p0(i64 8, ptr %11) #14
  call void @llvm.lifetime.end.p0(i64 8, ptr %10) #14
  call void @llvm.lifetime.end.p0(i64 8, ptr %9) #14
  ret float %112
}