; Function Attrs: nounwind uwtable
define internal fastcc float @_brush_get_position_in_segment(float noundef %0, float noundef %1, ptr %.0.val, i32 noundef %2) unnamed_addr #1 {
g_list_next_bounded.exit38:
  %3 = tail call ptr @g_list_nth(ptr noundef %.0.val, i32 noundef %2) #19
  %4 = load ptr, ptr %3, align 8, !tbaa !95
  %5 = getelementptr inbounds nuw i8, ptr %3, i64 8
  %6 = load ptr, ptr %5, align 8, !tbaa !155
  %.not6.i = icmp eq ptr %6, null
  %spec.select = select i1 %.not6.i, ptr %3, ptr %6
  %7 = load ptr, ptr %spec.select, align 8, !tbaa !95
  %8 = getelementptr inbounds nuw i8, ptr %spec.select, i64 8
  %9 = load ptr, ptr %8, align 8, !tbaa !155
  %.not6.i34 = icmp eq ptr %9, null
  %10 = select i1 %.not6.i34, ptr %spec.select, ptr %9
  %11 = load ptr, ptr %10, align 8, !tbaa !95
  %12 = getelementptr inbounds nuw i8, ptr %10, i64 8
  %13 = load ptr, ptr %12, align 8, !tbaa !155
  %.not6.i37 = icmp eq ptr %13, null
  %14 = select i1 %.not6.i37, ptr %10, ptr %13
  %15 = load ptr, ptr %14, align 8, !tbaa !95
  %16 = load float, ptr %4, align 4, !tbaa !93
  %17 = getelementptr inbounds nuw i8, ptr %4, i64 4
  %18 = load float, ptr %17, align 4, !tbaa !93
  %19 = load float, ptr %7, align 4, !tbaa !93
  %20 = getelementptr inbounds nuw i8, ptr %7, i64 4
  %21 = load float, ptr %20, align 4, !tbaa !93
  %22 = load float, ptr %11, align 4, !tbaa !93
  %23 = getelementptr inbounds nuw i8, ptr %11, i64 4
  %24 = load float, ptr %23, align 4, !tbaa !93
  %25 = load float, ptr %15, align 4, !tbaa !93
  %26 = getelementptr inbounds nuw i8, ptr %15, i64 4
  %27 = load float, ptr %26, align 4, !tbaa !93
  %factor.op.fmul22 = fneg reassoc nsz arcp contract afn float %16
  %factor.op.fmul26 = fneg reassoc nsz arcp contract afn float %18
  br label %29

28:                                               ; preds = %29
  ret float %.1

29:                                               ; preds = %g_list_next_bounded.exit38, %29
  %.030 = phi float [ 0.000000e+00, %g_list_next_bounded.exit38 ], [ %.1, %29 ]
  %.02929 = phi float [ 0x47EFFFFFE0000000, %g_list_next_bounded.exit38 ], [ %.130, %29 ]
  %.03128 = phi i32 [ 0, %g_list_next_bounded.exit38 ], [ %57, %29 ]
  %30 = uitofp nneg i32 %.03128 to float
  %31 = fmul reassoc nsz arcp contract afn float %30, 0x3F847AE140000000
  %32 = fsub reassoc nsz arcp contract afn float 1.000000e+00, %31
  %33 = fmul reassoc nsz arcp contract afn float %32, %32
  %34 = fmul reassoc nsz arcp contract afn float %33, %32
  %35 = fmul reassoc nsz arcp contract afn float %30, 0x3F9EB851E0000000
  %36 = fmul reassoc nsz arcp contract afn float %35, %33
  %37 = fmul reassoc nsz arcp contract afn float %31, %31
  %38 = fmul reassoc nsz arcp contract afn float %37, 3.000000e+00
  %39 = fmul reassoc nsz arcp contract afn float %38, %32
  %40 = fmul reassoc nsz arcp contract afn float %37, %31
  %.neg2.reass = fmul reassoc nsz arcp contract afn float %34, %factor.op.fmul22
  %41 = fmul reassoc nsz arcp contract afn float %19, %36
  %42 = fmul reassoc nsz arcp contract afn float %22, %39
  %43 = fadd reassoc nsz arcp contract afn float %41, %42
  %44 = fmul reassoc nsz arcp contract afn float %25, %40
  %45 = fadd reassoc nsz arcp contract afn float %43, %44
  %reass.add16 = fsub reassoc nsz arcp contract afn float %.neg2.reass, %45
  %46 = fadd reassoc nsz arcp contract afn float %reass.add16, %0
  %47 = fmul reassoc nsz arcp contract afn float %46, %46
  %.neg9.reass = fmul reassoc nsz arcp contract afn float %34, %factor.op.fmul26
  %48 = fmul reassoc nsz arcp contract afn float %21, %36
  %49 = fmul reassoc nsz arcp contract afn float %24, %39
  %50 = fadd reassoc nsz arcp contract afn float %48, %49
  %51 = fmul reassoc nsz arcp contract afn float %27, %40
  %52 = fadd reassoc nsz arcp contract afn float %50, %51
  %reass.add19 = fsub reassoc nsz arcp contract afn float %.neg9.reass, %52
  %53 = fadd reassoc nsz arcp contract afn float %reass.add19, %1
  %54 = fmul reassoc nsz arcp contract afn float %53, %53
  %55 = fadd reassoc nsz arcp contract afn float %54, %47
  %56 = fcmp reassoc nsz arcp contract afn olt float %55, %.02929
  %.130 = select nsz i1 %56, float %55, float %.02929
  %.1 = select nsz i1 %56, float %31, float %.030
  %57 = add nuw nsw i32 %.03128, 1
  %exitcond.not = icmp eq i32 %57, 101
  br i1 %exitcond.not, label %28, label %29
}